; Function Attrs: nounwind uwtable
define i32 @Java_com_sun_management_internal_Flag_getFlags(ptr noundef %0, ptr nocapture noundef readnone %1, ptr noundef %2, ptr noundef %3, i32 noundef %4) local_unnamed_addr #0 {
  %6 = icmp eq ptr %3, null
  br i1 %6, label %7, label %8

7:                                                ; preds = %5
  tail call void @JNU_ThrowNullPointerException(ptr noundef %0, ptr noundef null) #4
  br label %79

8:                                                ; preds = %5
  %9 = icmp slt i32 %4, 1
  br i1 %9, label %10, label %11

10:                                               ; preds = %8
  tail call void @JNU_ThrowIllegalArgumentException(ptr noundef %0, ptr noundef null) #4
  br label %79

11:                                               ; preds = %8
  %12 = zext nneg i32 %4 to i64
  %13 = mul nuw nsw i64 %12, 48
  %calloc = tail call ptr @calloc(i64 1, i64 %13)
  %14 = icmp eq ptr %calloc, null
  br i1 %14, label %15, label %16

15:                                               ; preds = %11
  tail call void @JNU_ThrowOutOfMemoryError(ptr noundef %0, ptr noundef null) #4
  br label %79

16:                                               ; preds = %11
  %17 = load ptr, ptr @jmm_interface_management_ext, align 8
  %18 = getelementptr inbounds i8, ptr %17, i64 160
  %19 = load ptr, ptr %18, align 8
  %20 = tail call i32 %19(ptr noundef %0, ptr noundef %2, ptr noundef nonnull %calloc, i32 noundef %4) #4
  %21 = icmp eq i32 %20, 0
  br i1 %21, label %22, label %.lr.ph

22:                                               ; preds = %16
  tail call void @free(ptr noundef nonnull %calloc) #4
  br label %79

.lr.ph:                                           ; preds = %16, %76
  %indvars.iv = phi i64 [ %indvars.iv.next, %76 ], [ 0, %16 ]
  %.07079 = phi i32 [ %.1, %76 ], [ 0, %16 ]
  %23 = getelementptr inbounds %struct.jmmVMGlobal, ptr %calloc, i64 %indvars.iv
  %24 = load ptr, ptr %23, align 8
  %25 = icmp eq ptr %24, null
  br i1 %25, label %76, label %26

26:                                               ; preds = %.lr.ph
  %27 = getelementptr inbounds i8, ptr %23, i64 16
  %28 = load i32, ptr %27, align 8
  switch i32 %28, label %76 [
    i32 1, label %29
    i32 2, label %34
    i32 3, label %37
    i32 4, label %41
  ]

29:                                               ; preds = %26
  %30 = getelementptr inbounds i8, ptr %23, i64 8
  %31 = load i8, ptr %30, align 8
  %32 = zext i8 %31 to i32
  %33 = tail call ptr (ptr, ptr, ptr, ...) @JNU_NewObjectByName(ptr noundef %0, ptr noundef nonnull @.str.10, ptr noundef nonnull @.str.11, i32 noundef %32) #4
  br label %45

34:                                               ; preds = %26
  %35 = getelementptr inbounds i8, ptr %23, i64 8
  %36 = load ptr, ptr %35, align 8
  br label %45

37:                                               ; preds = %26
  %38 = getelementptr inbounds i8, ptr %23, i64 8
  %39 = load i64, ptr %38, align 8
  %40 = tail call ptr (ptr, ptr, ptr, ...) @JNU_NewObjectByName(ptr noundef %0, ptr noundef nonnull @.str.12, ptr noundef nonnull @.str.13, i64 noundef %39) #4
  br label %45

41:                                               ; preds = %26
  %42 = getelementptr inbounds i8, ptr %23, i64 8
  %43 = load double, ptr %42, align 8
  %44 = tail call ptr (ptr, ptr, ptr, ...) @JNU_NewObjectByName(ptr noundef %0, ptr noundef nonnull @.str.14, ptr noundef nonnull @.str.15, double noundef %43) #4
  br label %45

45:                                               ; preds = %41, %37, %34, %29
  %.067 = phi ptr [ %44, %41 ], [ %40, %37 ], [ %36, %34 ], [ %33, %29 ]
  %46 = icmp eq ptr %.067, null
  br i1 %46, label %47, label %50

47:                                               ; preds = %45
  %48 = load i32, ptr %27, align 8
  %.not76 = icmp eq i32 %48, 2
  br i1 %.not76, label %50, label %49

49:                                               ; preds = %47
  tail call void @free(ptr noundef nonnull %calloc) #4
  tail call void @JNU_ThrowOutOfMemoryError(ptr noundef %0, ptr noundef null) #4
  br label %79

50:                                               ; preds = %47, %45
  %51 = getelementptr inbounds i8, ptr %23, i64 20
  %52 = load i32, ptr %51, align 4
  switch i32 %52, label %60 [
    i32 1, label %61
    i32 2, label %53
    i32 3, label %54
    i32 4, label %55
    i32 5, label %56
    i32 6, label %57
    i32 7, label %58
    i32 99, label %59
  ]

53:                                               ; preds = %50
  br label %61

54:                                               ; preds = %50
  br label %61

55:                                               ; preds = %50
  br label %61

56:                                               ; preds = %50
  br label %61

57:                                               ; preds = %50
  br label %61

58:                                               ; preds = %50
  br label %61

59:                                               ; preds = %50
  br label %61

60:                                               ; preds = %50
  br label %61

61:                                               ; preds = %50, %60, %59, %58, %57, %56, %55, %54, %53
  %.068.in = phi ptr [ @other_origin, %60 ], [ @other_origin, %59 ], [ @attach_origin, %58 ], [ @ergo_origin, %57 ], [ @config_file_origin, %56 ], [ @envvar_origin, %55 ], [ @mgmt_origin, %54 ], [ @vm_creation_origin, %53 ], [ @default_origin, %50 ]
  %.068 = load ptr, ptr %.068.in, align 8
  %62 = load ptr, ptr %23, align 8
  %63 = getelementptr inbounds i8, ptr %23, i64 24
  %64 = load i32, ptr %63, align 8
  %65 = and i32 %64, 1
  %66 = lshr i32 %64, 1
  %67 = and i32 %66, 1
  %68 = tail call ptr (ptr, ptr, ptr, ...) @JNU_NewObjectByName(ptr noundef %0, ptr noundef nonnull @.str.8, ptr noundef nonnull @.str.9, ptr noundef %62, ptr noundef %.067, i32 noundef %65, i32 noundef %67, ptr noundef %.068) #4
  %69 = icmp eq ptr %68, null
  br i1 %69, label %70, label %71

70:                                               ; preds = %61
  tail call void @free(ptr noundef nonnull %calloc) #4
  tail call void @JNU_ThrowOutOfMemoryError(ptr noundef %0, ptr noundef null) #4
  br label %79

71:                                               ; preds = %61
  %72 = load ptr, ptr %0, align 8
  %73 = getelementptr inbounds i8, ptr %72, i64 1392
  %74 = load ptr, ptr %73, align 8
  tail call void %74(ptr noundef nonnull %0, ptr noundef nonnull %3, i32 noundef %.07079, ptr noundef nonnull %68) #4
  %75 = add nsw i32 %.07079, 1
  br label %76

76:                                               ; preds = %26, %.lr.ph, %71
  %.1 = phi i32 [ %.07079, %.lr.ph ], [ %.07079, %26 ], [ %75, %71 ]
  %indvars.iv.next = add nuw nsw i64 %indvars.iv, 1
  %exitcond.not = icmp eq i64 %indvars.iv.next, %12
  br i1 %exitcond.not, label %._crit_edge, label %.lr.ph, !llvm.loop !6

._crit_edge:                                      ; preds = %76
  %.not = icmp eq i32 %.1, %20
  br i1 %.not, label %78, label %77

77:                                               ; preds = %._crit_edge
  tail call void @JNU_ThrowInternalError(ptr noundef %0, ptr noundef nonnull @.str.16) #4
  tail call void @free(ptr noundef nonnull %calloc) #4
  br label %79

78:                                               ; preds = %._crit_edge
  tail call void @free(ptr noundef nonnull %calloc) #4
  br label %79

79:                                               ; preds = %78, %77, %70, %49, %22, %15, %10, %7
  %.0 = phi i32 [ 0, %7 ], [ 0, %10 ], [ 0, %15 ], [ 0, %22 ], [ 0, %49 ], [ 0, %70 ], [ 0, %77 ], [ %20, %78 ]
  ret i32 %.0
}